; Function Attrs: mustprogress nounwind uwtable
define void @_Z24ddReopenBalanceRegionCpuPK12gmx_domdec_t(ptr nocapture noundef readonly %0) local_unnamed_addr #4 {
  %2 = getelementptr i8, ptr %0, i64 320
  %.val = load ptr, ptr %2, align 8
  %3 = getelementptr i8, ptr %.val, i64 2120
  %.val.val = load ptr, ptr %3, align 8
  %4 = load i8, ptr %.val.val, align 8
  %5 = trunc i8 %4 to i1
  br i1 %5, label %6, label %19

6:                                                ; preds = %1
  %7 = getelementptr inbounds i8, ptr %.val.val, i64 2
  %8 = load i8, ptr %7, align 2
  %9 = trunc i8 %8 to i1
  br i1 %9, label %19, label %10

10:                                               ; preds = %6
  %11 = tail call { i32, i32 } asm sideeffect "rdtscp", "={ax},={dx},~{ecx},~{dirflag},~{fpsr},~{flags}"() #12, !srcloc !8
  %12 = extractvalue { i32, i32 } %11, 0
  %13 = extractvalue { i32, i32 } %11, 1
  %14 = zext i32 %12 to i64
  %15 = zext i32 %13 to i64
  %16 = shl nuw i64 %15, 32
  %17 = or disjoint i64 %16, %14
  %18 = getelementptr inbounds i8, ptr %.val.val, i64 8
  store i64 %17, ptr %18, align 8
  br label %19

19:                                               ; preds = %10, %6, %1
  ret void
}